target datalayout = "e-m:e-p270:32:32-p271:32:32-p272:64:64-i64:64-i128:128-f80:128-n8:16:32:64-S128"
target triple = "x86_64-pc-linux-gnu"

%struct.StringInfoData = type { ptr, i32, i32, i32 }
%struct.__va_list_tag = type { i32, i32, ptr, ptr }

@.str.1 = private unnamed_addr constant [25 x i8] c"basebackup_incremental.c\00", align 1
@.str.20 = private unnamed_addr constant [3 x i8] c"%s\00", align 1
@__func__.manifest_report_error = private unnamed_addr constant [22 x i8] c"manifest_report_error\00", align 1

; Function Attrs: noreturn nounwind uwtable
define internal void @manifest_report_error(ptr noundef %0, ptr noundef %1, ...) #4 {
  %3 = alloca ptr, align 8
  %4 = alloca ptr, align 8
  %5 = alloca %struct.StringInfoData, align 8
  %6 = alloca [1 x %struct.__va_list_tag], align 16
  %7 = alloca i32, align 4
  %8 = alloca i32, align 4
  store ptr %0, ptr %3, align 8
  store ptr %1, ptr %4, align 8
  call void @llvm.lifetime.start.p0(i64 24, ptr %5) #12
  call void @initStringInfo(ptr noundef %5)
  br label %9

9:                                                ; preds = %22, %2
  call void @llvm.lifetime.start.p0(i64 24, ptr %6) #12
  call void @llvm.lifetime.start.p0(i64 4, ptr %7) #12
  %10 = getelementptr inbounds [1 x %struct.__va_list_tag], ptr %6, i64 0, i64 0
  call void @llvm.va_start.p0(ptr %10)
  %11 = load ptr, ptr %4, align 8
  %12 = getelementptr inbounds [1 x %struct.__va_list_tag], ptr %6, i64 0, i64 0
  %13 = call i32 @appendStringInfoVA(ptr noundef %5, ptr noundef %11, ptr noundef %12)
  store i32 %13, ptr %7, align 4
  %14 = getelementptr inbounds [1 x %struct.__va_list_tag], ptr %6, i64 0, i64 0
  call void @llvm.va_end.p0(ptr %14)
  %15 = load i32, ptr %7, align 4
  %16 = icmp eq i32 %15, 0
  br i1 %16, label %17, label %18

17:                                               ; preds = %9
  store i32 2, ptr %8, align 4
  br label %20

18:                                               ; preds = %9
  %19 = load i32, ptr %7, align 4
  call void @enlargeStringInfo(ptr noundef %5, i32 noundef %19)
  store i32 0, ptr %8, align 4
  br label %20

20:                                               ; preds = %18, %17
  call void @llvm.lifetime.end.p0(i64 4, ptr %7) #12
  call void @llvm.lifetime.end.p0(i64 24, ptr %6) #12
  %21 = load i32, ptr %8, align 4
  switch i32 %21, label %36 [
    i32 0, label %22
    i32 2, label %23
  ]

22:                                               ; preds = %20
  br label %9

23:                                               ; preds = %20
  br label %24

24:                                               ; preds = %23
  br i1 true, label %25, label %27

25:                                               ; preds = %24
  %26 = call zeroext i1 @errstart_cold(i32 noundef 21, ptr noundef null) #14
  br i1 %26, label %29, label %33

27:                                               ; preds = %24
  %28 = call zeroext i1 @errstart(i32 noundef 21, ptr noundef null)
  br i1 %28, label %29, label %33

29:                                               ; preds = %27, %25
  %30 = getelementptr inbounds nuw %struct.StringInfoData, ptr %5, i32 0, i32 0
  %31 = load ptr, ptr %30, align 8
  %32 = call i32 (ptr, ...) @errmsg_internal(ptr noundef @.str.20, ptr noundef %31)
  call void @errfinish(ptr noundef @.str.1, i32 noundef 1031, ptr noundef @__func__.manifest_report_error)
  br label %33

33:                                               ; preds = %29, %27, %25
  unreachable

34:                                               ; No predecessors!
  br label %35

35:                                               ; preds = %34
  call void @llvm.lifetime.end.p0(i64 24, ptr %5) #12
  unreachable

36:                                               ; preds = %20
  unreachable
}