; Function Attrs: noreturn nounwind uwtable
define internal void @manifest_report_error(ptr readnone captures(none) %0, ptr noundef %1, ...) #3 {
  %3 = alloca %struct.StringInfoData, align 8
  %4 = alloca [1 x %struct.__va_list_tag], align 16
  call void @llvm.lifetime.start.p0(i64 24, ptr nonnull %3) #14
  call void @initStringInfo(ptr noundef nonnull %3) #14
  call void @llvm.lifetime.start.p0(i64 24, ptr nonnull %4) #14
  call void @llvm.va_start.p0(ptr nonnull %4)
  %5 = call i32 @appendStringInfoVA(ptr noundef nonnull %3, ptr noundef %1, ptr noundef nonnull %4) #14
  call void @llvm.va_end.p0(ptr nonnull %4)
  %6 = icmp eq i32 %5, 0
  br i1 %6, label %._crit_edge, label %.lr.ph

.lr.ph:                                           ; preds = %2, %.lr.ph
  %7 = phi i32 [ %8, %.lr.ph ], [ %5, %2 ]
  call void @enlargeStringInfo(ptr noundef nonnull %3, i32 noundef %7) #14
  call void @llvm.lifetime.end.p0(i64 24, ptr nonnull %4) #14
  call void @llvm.lifetime.start.p0(i64 24, ptr nonnull %4) #14
  call void @llvm.va_start.p0(ptr nonnull %4)
  %8 = call i32 @appendStringInfoVA(ptr noundef nonnull %3, ptr noundef %1, ptr noundef nonnull %4) #14
  call void @llvm.va_end.p0(ptr nonnull %4)
  %9 = icmp eq i32 %8, 0
  br i1 %9, label %._crit_edge, label %.lr.ph

._crit_edge:                                      ; preds = %.lr.ph, %2
  call void @llvm.lifetime.end.p0(i64 24, ptr nonnull %4) #14
  %10 = call zeroext i1 @errstart_cold(i32 noundef 21, ptr noundef null) #17
  call void @llvm.assume(i1 %10)
  %11 = load ptr, ptr %3, align 8
  %12 = call i32 (ptr, ...) @errmsg_internal(ptr noundef nonnull @.str.20, ptr noundef %11) #14
  call void @errfinish(ptr noundef nonnull @.str.1, i32 noundef 1031, ptr noundef nonnull @__func__.manifest_report_error) #14
  unreachable
}